target datalayout = "e-m:e-p270:32:32-p271:32:32-p272:64:64-i64:64-i128:128-f80:128-n8:16:32:64-S128"
target triple = "x86_64-pc-linux-gnu"

; Function Attrs: mustprogress nounwind uwtable
define dso_local noundef ptr @_ZNKSt3__15ctypeIwE8do_widenEPKcS3_Pw(ptr noundef nonnull align 8 dereferenceable(16) %0, ptr noundef %1, ptr noundef %2, ptr noundef %3) unnamed_addr #0 align 2 {
  %5 = alloca ptr, align 8
  %6 = alloca ptr, align 8
  %7 = alloca ptr, align 8
  %8 = alloca ptr, align 8
  store ptr %0, ptr %5, align 8, !tbaa !107
  store ptr %1, ptr %6, align 8, !tbaa !9
  store ptr %2, ptr %7, align 8, !tbaa !9
  store ptr %3, ptr %8, align 8, !tbaa !21
  br label %9

9:                                                ; preds = %18, %4
  %10 = load ptr, ptr %6, align 8, !tbaa !9
  %11 = load ptr, ptr %7, align 8, !tbaa !9
  %12 = icmp ne ptr %10, %11
  br i1 %12, label %13, label %23

13:                                               ; preds = %9
  %14 = load ptr, ptr %6, align 8, !tbaa !9
  %15 = load i8, ptr %14, align 1, !tbaa !11
  %16 = sext i8 %15 to i32
  %17 = load ptr, ptr %8, align 8, !tbaa !21
  store i32 %16, ptr %17, align 4, !tbaa !23
  br label %18

18:                                               ; preds = %13
  %19 = load ptr, ptr %6, align 8, !tbaa !9
  %20 = getelementptr inbounds nuw i8, ptr %19, i32 1
  store ptr %20, ptr %6, align 8, !tbaa !9
  %21 = load ptr, ptr %8, align 8, !tbaa !21
  %22 = getelementptr inbounds nuw i32, ptr %21, i32 1
  store ptr %22, ptr %8, align 8, !tbaa !21
  br label %9, !llvm.loop !457

23:                                               ; preds = %9
  %24 = load ptr, ptr %6, align 8, !tbaa !9
  ret ptr %24
}