; Function Attrs: mustprogress nofree norecurse nosync nounwind memory(argmem: readwrite) uwtable
define dso_local noundef ptr @_ZNKSt3__15ctypeIwE8do_widenEPKcS3_Pw(ptr nonnull readnone align 8 captures(none) %0, ptr noundef readonly captures(address, ret: address, provenance) %1, ptr noundef readnone captures(address) %2, ptr noundef writeonly captures(none) %3) unnamed_addr #24 align 2 {
  %.not8 = icmp eq ptr %1, %2
  br i1 %.not8, label %._crit_edge, label %.lr.ph

.lr.ph:                                           ; preds = %4, %.lr.ph
  %.010 = phi ptr [ %8, %.lr.ph ], [ %3, %4 ]
  %.079 = phi ptr [ %7, %.lr.ph ], [ %1, %4 ]
  %5 = load i8, ptr %.079, align 1, !tbaa !4
  %6 = sext i8 %5 to i32
  store i32 %6, ptr %.010, align 4, !tbaa !10
  %7 = getelementptr inbounds nuw i8, ptr %.079, i64 1
  %8 = getelementptr inbounds nuw i8, ptr %.010, i64 4
  %.not = icmp eq ptr %7, %2
  br i1 %.not, label %._crit_edge, label %.lr.ph, !llvm.loop !388

._crit_edge:                                      ; preds = %.lr.ph, %4
  %.07.lcssa = phi ptr [ %1, %4 ], [ %7, %.lr.ph ]
  ret ptr %.07.lcssa
}